target datalayout = "e-m:e-p270:32:32-p271:32:32-p272:64:64-i64:64-i128:128-f80:128-n8:16:32:64-S128"
target triple = "x86_64-pc-linux-gnu"

; Function Attrs: nounwind uwtable
define internal void @mlp_filter_channel(ptr noundef %0, ptr noundef %1, i32 noundef %2, i32 noundef %3, i32 noundef %4, i32 noundef %5, i32 noundef %6, ptr noundef %7) #0 {
  %9 = alloca ptr, align 8
  %10 = alloca ptr, align 8
  %11 = alloca i32, align 4
  %12 = alloca i32, align 4
  %13 = alloca i32, align 4
  %14 = alloca i32, align 4
  %15 = alloca i32, align 4
  %16 = alloca ptr, align 8
  %17 = alloca ptr, align 8
  %18 = alloca ptr, align 8
  %19 = alloca ptr, align 8
  %20 = alloca ptr, align 8
  %21 = alloca i32, align 4
  %22 = alloca i32, align 4
  %23 = alloca i32, align 4
  %24 = alloca i64, align 8
  %25 = alloca i32, align 4
  store ptr %0, ptr %9, align 8, !tbaa !4
  store ptr %1, ptr %10, align 8, !tbaa !4
  store i32 %2, ptr %11, align 4, !tbaa !11
  store i32 %3, ptr %12, align 4, !tbaa !11
  store i32 %4, ptr %13, align 4, !tbaa !11
  store i32 %5, ptr %14, align 4, !tbaa !11
  store i32 %6, ptr %15, align 4, !tbaa !11
  store ptr %7, ptr %16, align 8, !tbaa !4
  call void @llvm.lifetime.start.p0(i64 8, ptr %17) #3
  %26 = load ptr, ptr %9, align 8, !tbaa !4
  store ptr %26, ptr %17, align 8, !tbaa !4
  call void @llvm.lifetime.start.p0(i64 8, ptr %18) #3
  %27 = load ptr, ptr %9, align 8, !tbaa !4
  %28 = getelementptr inbounds i32, ptr %27, i64 160
  %29 = getelementptr inbounds i32, ptr %28, i64 8
  store ptr %29, ptr %18, align 8, !tbaa !4
  call void @llvm.lifetime.start.p0(i64 8, ptr %19) #3
  %30 = load ptr, ptr %10, align 8, !tbaa !4
  store ptr %30, ptr %19, align 8, !tbaa !4
  call void @llvm.lifetime.start.p0(i64 8, ptr %20) #3
  %31 = load ptr, ptr %10, align 8, !tbaa !4
  %32 = getelementptr inbounds i32, ptr %31, i64 8
  store ptr %32, ptr %20, align 8, !tbaa !4
  call void @llvm.lifetime.start.p0(i64 4, ptr %21) #3
  store i32 0, ptr %21, align 4, !tbaa !11
  br label %33

33:                                               ; preds = %114, %8
  %34 = load i32, ptr %21, align 4, !tbaa !11
  %35 = load i32, ptr %15, align 4, !tbaa !11
  %36 = icmp slt i32 %34, %35
  br i1 %36, label %37, label %117

37:                                               ; preds = %33
  call void @llvm.lifetime.start.p0(i64 4, ptr %22) #3
  %38 = load ptr, ptr %16, align 8, !tbaa !4
  %39 = load i32, ptr %38, align 4, !tbaa !11
  store i32 %39, ptr %22, align 4, !tbaa !11
  call void @llvm.lifetime.start.p0(i64 4, ptr %23) #3
  call void @llvm.lifetime.start.p0(i64 8, ptr %24) #3
  store i64 0, ptr %24, align 8, !tbaa !15
  call void @llvm.lifetime.start.p0(i64 4, ptr %25) #3
  store i32 0, ptr %23, align 4, !tbaa !11
  br label %40

40:                                               ; preds = %60, %37
  %41 = load i32, ptr %23, align 4, !tbaa !11
  %42 = load i32, ptr %11, align 4, !tbaa !11
  %43 = icmp ult i32 %41, %42
  br i1 %43, label %44, label %63

44:                                               ; preds = %40
  %45 = load ptr, ptr %17, align 8, !tbaa !4
  %46 = load i32, ptr %23, align 4, !tbaa !11
  %47 = zext i32 %46 to i64
  %48 = getelementptr inbounds nuw i32, ptr %45, i64 %47
  %49 = load i32, ptr %48, align 4, !tbaa !11
  %50 = sext i32 %49 to i64
  %51 = load ptr, ptr %19, align 8, !tbaa !4
  %52 = load i32, ptr %23, align 4, !tbaa !11
  %53 = zext i32 %52 to i64
  %54 = getelementptr inbounds nuw i32, ptr %51, i64 %53
  %55 = load i32, ptr %54, align 4, !tbaa !11
  %56 = sext i32 %55 to i64
  %57 = mul nsw i64 %50, %56
  %58 = load i64, ptr %24, align 8, !tbaa !15
  %59 = add nsw i64 %58, %57
  store i64 %59, ptr %24, align 8, !tbaa !15
  br label %60

60:                                               ; preds = %44
  %61 = load i32, ptr %23, align 4, !tbaa !11
  %62 = add i32 %61, 1
  store i32 %62, ptr %23, align 4, !tbaa !11
  br label %40, !llvm.loop !32

63:                                               ; preds = %40
  store i32 0, ptr %23, align 4, !tbaa !11
  br label %64

64:                                               ; preds = %84, %63
  %65 = load i32, ptr %23, align 4, !tbaa !11
  %66 = load i32, ptr %12, align 4, !tbaa !11
  %67 = icmp ult i32 %65, %66
  br i1 %67, label %68, label %87

68:                                               ; preds = %64
  %69 = load ptr, ptr %18, align 8, !tbaa !4
  %70 = load i32, ptr %23, align 4, !tbaa !11
  %71 = zext i32 %70 to i64
  %72 = getelementptr inbounds nuw i32, ptr %69, i64 %71
  %73 = load i32, ptr %72, align 4, !tbaa !11
  %74 = sext i32 %73 to i64
  %75 = load ptr, ptr %20, align 8, !tbaa !4
  %76 = load i32, ptr %23, align 4, !tbaa !11
  %77 = zext i32 %76 to i64
  %78 = getelementptr inbounds nuw i32, ptr %75, i64 %77
  %79 = load i32, ptr %78, align 4, !tbaa !11
  %80 = sext i32 %79 to i64
  %81 = mul nsw i64 %74, %80
  %82 = load i64, ptr %24, align 8, !tbaa !15
  %83 = add nsw i64 %82, %81
  store i64 %83, ptr %24, align 8, !tbaa !15
  br label %84

84:                                               ; preds = %68
  %85 = load i32, ptr %23, align 4, !tbaa !11
  %86 = add i32 %85, 1
  store i32 %86, ptr %23, align 4, !tbaa !11
  br label %64, !llvm.loop !33

87:                                               ; preds = %64
  %88 = load i64, ptr %24, align 8, !tbaa !15
  %89 = load i32, ptr %13, align 4, !tbaa !11
  %90 = zext i32 %89 to i64
  %91 = ashr i64 %88, %90
  store i64 %91, ptr %24, align 8, !tbaa !15
  %92 = load i64, ptr %24, align 8, !tbaa !15
  %93 = load i32, ptr %22, align 4, !tbaa !11
  %94 = sext i32 %93 to i64
  %95 = add nsw i64 %92, %94
  %96 = load i32, ptr %14, align 4, !tbaa !11
  %97 = sext i32 %96 to i64
  %98 = and i64 %95, %97
  %99 = trunc i64 %98 to i32
  store i32 %99, ptr %25, align 4, !tbaa !11
  %100 = load i32, ptr %25, align 4, !tbaa !11
  %101 = load ptr, ptr %17, align 8, !tbaa !4
  %102 = getelementptr inbounds i32, ptr %101, i32 -1
  store ptr %102, ptr %17, align 8, !tbaa !4
  store i32 %100, ptr %102, align 4, !tbaa !11
  %103 = load i32, ptr %25, align 4, !tbaa !11
  %104 = sext i32 %103 to i64
  %105 = load i64, ptr %24, align 8, !tbaa !15
  %106 = sub nsw i64 %104, %105
  %107 = trunc i64 %106 to i32
  %108 = load ptr, ptr %18, align 8, !tbaa !4
  %109 = getelementptr inbounds i32, ptr %108, i32 -1
  store ptr %109, ptr %18, align 8, !tbaa !4
  store i32 %107, ptr %109, align 4, !tbaa !11
  %110 = load i32, ptr %25, align 4, !tbaa !11
  %111 = load ptr, ptr %16, align 8, !tbaa !4
  store i32 %110, ptr %111, align 4, !tbaa !11
  %112 = load ptr, ptr %16, align 8, !tbaa !4
  %113 = getelementptr inbounds i32, ptr %112, i64 8
  store ptr %113, ptr %16, align 8, !tbaa !4
  call void @llvm.lifetime.end.p0(i64 4, ptr %25) #3
  call void @llvm.lifetime.end.p0(i64 8, ptr %24) #3
  call void @llvm.lifetime.end.p0(i64 4, ptr %23) #3
  call void @llvm.lifetime.end.p0(i64 4, ptr %22) #3
  br label %114

114:                                              ; preds = %87
  %115 = load i32, ptr %21, align 4, !tbaa !11
  %116 = add nsw i32 %115, 1
  store i32 %116, ptr %21, align 4, !tbaa !11
  br label %33, !llvm.loop !34

117:                                              ; preds = %33
  call void @llvm.lifetime.end.p0(i64 4, ptr %21) #3
  call void @llvm.lifetime.end.p0(i64 8, ptr %20) #3
  call void @llvm.lifetime.end.p0(i64 8, ptr %19) #3
  call void @llvm.lifetime.end.p0(i64 8, ptr %18) #3
  call void @llvm.lifetime.end.p0(i64 8, ptr %17) #3
  ret void
}