; Function Attrs: nofree norecurse nosync nounwind memory(argmem: readwrite) uwtable
define internal void @mlp_filter_channel(ptr noundef captures(none) %0, ptr noundef readonly captures(none) %1, i32 noundef %2, i32 noundef %3, i32 noundef %4, i32 noundef %5, i32 noundef %6, ptr noundef captures(none) %7) #0 {
  %9 = getelementptr inbounds nuw i8, ptr %0, i64 672
  %10 = getelementptr inbounds nuw i8, ptr %1, i64 32
  %11 = icmp sgt i32 %6, 0
  br i1 %11, label %.lr.ph53, label %._crit_edge54

.lr.ph53:                                         ; preds = %8
  %.not = icmp eq i32 %2, 0
  %.not66 = icmp eq i32 %3, 0
  %12 = zext nneg i32 %4 to i64
  br i1 %.not, label %.lr.ph53.split, label %.lr.ph53.split.us

.lr.ph53.split.us:                                ; preds = %.lr.ph53
  %wide.trip.count83 = zext i32 %2 to i64
  br i1 %.not66, label %.lr.ph.us, label %.lr.ph.us.us.preheader

.lr.ph.us.us.preheader:                           ; preds = %.lr.ph53.split.us
  %wide.trip.count77 = zext i32 %3 to i64
  br label %.lr.ph.us.us

.lr.ph.us.us:                                     ; preds = %.lr.ph.us.us.preheader, %._crit_edge.us.us
  %.051.us.us = phi ptr [ %38, %._crit_edge.us.us ], [ %7, %.lr.ph.us.us.preheader ]
  %.03950.us.us = phi ptr [ %35, %._crit_edge.us.us ], [ %0, %.lr.ph.us.us.preheader ]
  %.04049.us.us = phi i32 [ %39, %._crit_edge.us.us ], [ 0, %.lr.ph.us.us.preheader ]
  %.04148.us.us = phi ptr [ %37, %._crit_edge.us.us ], [ %9, %.lr.ph.us.us.preheader ]
  %13 = load i32, ptr %.051.us.us, align 4, !tbaa !4
  br label %22

..preheader_crit_edge.us.us:                      ; preds = %22, %..preheader_crit_edge.us.us
  %indvars.iv74 = phi i64 [ %indvars.iv.next75, %..preheader_crit_edge.us.us ], [ 0, %22 ]
  %.145.us.us = phi i64 [ %21, %..preheader_crit_edge.us.us ], [ %30, %22 ]
  %14 = getelementptr inbounds nuw i32, ptr %.04148.us.us, i64 %indvars.iv74
  %15 = load i32, ptr %14, align 4, !tbaa !4
  %16 = sext i32 %15 to i64
  %17 = getelementptr inbounds nuw i32, ptr %10, i64 %indvars.iv74
  %18 = load i32, ptr %17, align 4, !tbaa !4
  %19 = sext i32 %18 to i64
  %20 = mul nsw i64 %19, %16
  %21 = add nsw i64 %20, %.145.us.us
  %indvars.iv.next75 = add nuw nsw i64 %indvars.iv74, 1
  %exitcond78.not = icmp eq i64 %indvars.iv.next75, %wide.trip.count77
  br i1 %exitcond78.not, label %._crit_edge.us.us, label %..preheader_crit_edge.us.us, !llvm.loop !21

22:                                               ; preds = %22, %.lr.ph.us.us
  %indvars.iv = phi i64 [ %indvars.iv.next, %22 ], [ 0, %.lr.ph.us.us ]
  %.03643.us.us = phi i64 [ %30, %22 ], [ 0, %.lr.ph.us.us ]
  %23 = getelementptr inbounds nuw i32, ptr %.03950.us.us, i64 %indvars.iv
  %24 = load i32, ptr %23, align 4, !tbaa !4
  %25 = sext i32 %24 to i64
  %26 = getelementptr inbounds nuw i32, ptr %1, i64 %indvars.iv
  %27 = load i32, ptr %26, align 4, !tbaa !4
  %28 = sext i32 %27 to i64
  %29 = mul nsw i64 %28, %25
  %30 = add nsw i64 %29, %.03643.us.us
  %indvars.iv.next = add nuw nsw i64 %indvars.iv, 1
  %exitcond.not = icmp eq i64 %indvars.iv.next, %wide.trip.count83
  br i1 %exitcond.not, label %..preheader_crit_edge.us.us, label %22, !llvm.loop !22

._crit_edge.us.us:                                ; preds = %..preheader_crit_edge.us.us
  %31 = ashr i64 %21, %12
  %32 = trunc i64 %31 to i32
  %33 = add i32 %13, %32
  %34 = and i32 %33, %5
  %35 = getelementptr inbounds i8, ptr %.03950.us.us, i64 -4
  store i32 %34, ptr %35, align 4, !tbaa !4
  %36 = sub i32 %34, %32
  %37 = getelementptr inbounds i8, ptr %.04148.us.us, i64 -4
  store i32 %36, ptr %37, align 4, !tbaa !4
  store i32 %34, ptr %.051.us.us, align 4, !tbaa !4
  %38 = getelementptr inbounds nuw i8, ptr %.051.us.us, i64 32
  %39 = add nuw nsw i32 %.04049.us.us, 1
  %exitcond79.not = icmp eq i32 %39, %6
  br i1 %exitcond79.not, label %._crit_edge54, label %.lr.ph.us.us, !llvm.loop !23

.lr.ph.us:                                        ; preds = %.lr.ph53.split.us, %..preheader_crit_edge.us
  %.051.us = phi ptr [ %57, %..preheader_crit_edge.us ], [ %7, %.lr.ph53.split.us ]
  %.03950.us = phi ptr [ %54, %..preheader_crit_edge.us ], [ %0, %.lr.ph53.split.us ]
  %.04049.us = phi i32 [ %58, %..preheader_crit_edge.us ], [ 0, %.lr.ph53.split.us ]
  %.04148.us = phi ptr [ %56, %..preheader_crit_edge.us ], [ %9, %.lr.ph53.split.us ]
  %40 = load i32, ptr %.051.us, align 4, !tbaa !4
  br label %41

41:                                               ; preds = %.lr.ph.us, %41
  %indvars.iv80 = phi i64 [ 0, %.lr.ph.us ], [ %indvars.iv.next81, %41 ]
  %.03643.us = phi i64 [ 0, %.lr.ph.us ], [ %49, %41 ]
  %42 = getelementptr inbounds nuw i32, ptr %.03950.us, i64 %indvars.iv80
  %43 = load i32, ptr %42, align 4, !tbaa !4
  %44 = sext i32 %43 to i64
  %45 = getelementptr inbounds nuw i32, ptr %1, i64 %indvars.iv80
  %46 = load i32, ptr %45, align 4, !tbaa !4
  %47 = sext i32 %46 to i64
  %48 = mul nsw i64 %47, %44
  %49 = add nsw i64 %48, %.03643.us
  %indvars.iv.next81 = add nuw nsw i64 %indvars.iv80, 1
  %exitcond84.not = icmp eq i64 %indvars.iv.next81, %wide.trip.count83
  br i1 %exitcond84.not, label %..preheader_crit_edge.us, label %41, !llvm.loop !22

..preheader_crit_edge.us:                         ; preds = %41
  %50 = ashr i64 %49, %12
  %51 = trunc i64 %50 to i32
  %52 = add i32 %40, %51
  %53 = and i32 %52, %5
  %54 = getelementptr inbounds i8, ptr %.03950.us, i64 -4
  store i32 %53, ptr %54, align 4, !tbaa !4
  %55 = sub i32 %53, %51
  %56 = getelementptr inbounds i8, ptr %.04148.us, i64 -4
  store i32 %55, ptr %56, align 4, !tbaa !4
  store i32 %53, ptr %.051.us, align 4, !tbaa !4
  %57 = getelementptr inbounds nuw i8, ptr %.051.us, i64 32
  %58 = add nuw nsw i32 %.04049.us, 1
  %exitcond85.not = icmp eq i32 %58, %6
  br i1 %exitcond85.not, label %._crit_edge54, label %.lr.ph.us, !llvm.loop !23

.lr.ph53.split:                                   ; preds = %.lr.ph53
  br i1 %.not66, label %.preheader, label %.preheader.us55.preheader

.preheader.us55.preheader:                        ; preds = %.lr.ph53.split
  %wide.trip.count89 = zext i32 %3 to i64
  br label %.preheader.us55

.preheader.us55:                                  ; preds = %.preheader.us55.preheader, %._crit_edge.us64
  %.051.us56 = phi ptr [ %76, %._crit_edge.us64 ], [ %7, %.preheader.us55.preheader ]
  %.03950.us57 = phi ptr [ %73, %._crit_edge.us64 ], [ %0, %.preheader.us55.preheader ]
  %.04049.us58 = phi i32 [ %77, %._crit_edge.us64 ], [ 0, %.preheader.us55.preheader ]
  %.04148.us59 = phi ptr [ %75, %._crit_edge.us64 ], [ %9, %.preheader.us55.preheader ]
  %59 = load i32, ptr %.051.us56, align 4, !tbaa !4
  br label %60

60:                                               ; preds = %.preheader.us55, %60
  %indvars.iv86 = phi i64 [ 0, %.preheader.us55 ], [ %indvars.iv.next87, %60 ]
  %.145.us61 = phi i64 [ 0, %.preheader.us55 ], [ %68, %60 ]
  %61 = getelementptr inbounds nuw i32, ptr %.04148.us59, i64 %indvars.iv86
  %62 = load i32, ptr %61, align 4, !tbaa !4
  %63 = sext i32 %62 to i64
  %64 = getelementptr inbounds nuw i32, ptr %10, i64 %indvars.iv86
  %65 = load i32, ptr %64, align 4, !tbaa !4
  %66 = sext i32 %65 to i64
  %67 = mul nsw i64 %66, %63
  %68 = add nsw i64 %67, %.145.us61
  %indvars.iv.next87 = add nuw nsw i64 %indvars.iv86, 1
  %exitcond90.not = icmp eq i64 %indvars.iv.next87, %wide.trip.count89
  br i1 %exitcond90.not, label %._crit_edge.us64, label %60, !llvm.loop !21

._crit_edge.us64:                                 ; preds = %60
  %69 = ashr i64 %68, %12
  %70 = trunc i64 %69 to i32
  %71 = add i32 %59, %70
  %72 = and i32 %71, %5
  %73 = getelementptr inbounds i8, ptr %.03950.us57, i64 -4
  store i32 %72, ptr %73, align 4, !tbaa !4
  %74 = sub i32 %72, %70
  %75 = getelementptr inbounds i8, ptr %.04148.us59, i64 -4
  store i32 %74, ptr %75, align 4, !tbaa !4
  store i32 %72, ptr %.051.us56, align 4, !tbaa !4
  %76 = getelementptr inbounds nuw i8, ptr %.051.us56, i64 32
  %77 = add nuw nsw i32 %.04049.us58, 1
  %exitcond91.not = icmp eq i32 %77, %6
  br i1 %exitcond91.not, label %._crit_edge54, label %.preheader.us55, !llvm.loop !23

.preheader:                                       ; preds = %.lr.ph53.split, %.preheader
  %.051 = phi ptr [ %82, %.preheader ], [ %7, %.lr.ph53.split ]
  %.03950 = phi ptr [ %80, %.preheader ], [ %0, %.lr.ph53.split ]
  %.04049 = phi i32 [ %83, %.preheader ], [ 0, %.lr.ph53.split ]
  %.04148 = phi ptr [ %81, %.preheader ], [ %9, %.lr.ph53.split ]
  %78 = load i32, ptr %.051, align 4, !tbaa !4
  %79 = and i32 %78, %5
  %80 = getelementptr inbounds i8, ptr %.03950, i64 -4
  store i32 %79, ptr %80, align 4, !tbaa !4
  %81 = getelementptr inbounds i8, ptr %.04148, i64 -4
  store i32 %79, ptr %81, align 4, !tbaa !4
  store i32 %79, ptr %.051, align 4, !tbaa !4
  %82 = getelementptr inbounds nuw i8, ptr %.051, i64 32
  %83 = add nuw nsw i32 %.04049, 1
  %exitcond92.not = icmp eq i32 %83, %6
  br i1 %exitcond92.not, label %._crit_edge54, label %.preheader, !llvm.loop !23

._crit_edge54:                                    ; preds = %._crit_edge.us.us, %..preheader_crit_edge.us, %._crit_edge.us64, %.preheader, %8
  ret void
}